target datalayout = "e-m:e-p270:32:32-p271:32:32-p272:64:64-i64:64-i128:128-f80:128-n8:16:32:64-S128"
target triple = "x86_64-pc-linux-gnu"

%struct.BoolTest = type { i32 }
%class.Node.base = type <{ ptr, ptr, ptr, i32, i32, i32, i32, i32, i32, i32 }>
%class.BoolNode = type { %class.Node.base, %struct.BoolTest }

; Function Attrs: mustprogress nounwind uwtable
define hidden noundef i32 @_ZNK8BoolNode4hashEv(ptr noundef nonnull align 8 dereferenceable(56) %0) unnamed_addr #1 align 2 {
  %2 = alloca ptr, align 8
  store ptr %0, ptr %2, align 8
  %3 = load ptr, ptr %2, align 8
  %4 = call noundef i32 @_ZNK4Node4hashEv(ptr noundef nonnull align 8 dereferenceable(52) %3)
  %5 = shl i32 %4, 3
  %6 = getelementptr inbounds %class.BoolNode, ptr %3, i32 0, i32 1
  %7 = getelementptr inbounds %struct.BoolTest, ptr %6, i32 0, i32 0
  %8 = load i32, ptr %7, align 4
  %9 = add nsw i32 %8, 1
  %10 = or i32 %5, %9
  ret i32 %10
}