; Function Attrs: mustprogress nounwind uwtable
define hidden noundef i32 @_ZNK8BoolNode4hashEv(ptr noundef nonnull align 8 dereferenceable(56) %0) unnamed_addr #0 align 2 {
  %2 = tail call noundef i32 @_ZNK4Node4hashEv(ptr noundef nonnull align 8 dereferenceable(52) %0) #10
  %3 = shl i32 %2, 3
  %4 = getelementptr inbounds i8, ptr %0, i64 52
  %5 = load i32, ptr %4, align 4
  %6 = add nsw i32 %5, 1
  %7 = or i32 %6, %3
  ret i32 %7
}